; ModuleID = 'bench/darktable/original/hinter.c.ll'
source_filename = "bench/darktable/original/hinter.c.ll"
target datalayout = "e-m:e-p270:32:32-p271:32:32-p272:64:64-i64:64-i128:128-f80:128-n8:16:32:64-S128"
target triple = "x86_64-pc-linux-gnu"

%struct.darktable_t = type { %struct.dt_codepath_t, i32, i32, ptr, ptr, ptr, ptr, ptr, ptr, ptr, ptr, ptr, ptr, ptr, ptr, ptr, ptr, ptr, ptr, ptr, ptr, ptr, ptr, ptr, ptr, ptr, ptr, ptr, ptr, ptr, [64 x %struct.dt_pthread_mutex_t], %struct.dt_pthread_mutex_t, %struct.dt_pthread_mutex_t, %struct.dt_pthread_mutex_t, %struct.dt_pthread_mutex_t, %struct.dt_pthread_mutex_t, ptr, ptr, ptr, ptr, ptr, ptr, ptr, ptr, ptr, ptr, ptr, ptr, %struct.dt_lua_state_t, ptr, double, ptr, i32, [46 x i32], i32, ptr, ptr, %struct.dt_sys_resources_t, %struct.dt_backthumb_t, %struct.dt_gimp_t }
%struct.dt_codepath_t = type { i8, [3 x i8] }
%struct.dt_pthread_mutex_t = type { %union.pthread_mutex_t }
%union.pthread_mutex_t = type { %struct.__pthread_mutex_s }
%struct.__pthread_mutex_s = type { i32, i32, i32, i32, i32, i16, i16, %struct.__pthread_internal_list }
%struct.__pthread_internal_list = type { ptr, ptr }
%struct.dt_lua_state_t = type { i32 }
%struct.dt_sys_resources_t = type { i64, i64, ptr, ptr, i32, i32, i32 }
%struct.dt_backthumb_t = type { double, double, i32, i32, i32, i32 }
%struct.dt_gimp_t = type { i32, ptr, ptr, i32, i32 }

@.str = private unnamed_addr constant [7 x i8] c"hinter\00", align 1
@.str.1 = private unnamed_addr constant [1 x i8] zeroinitializer, align 1
@darktable = external local_unnamed_addr global %struct.darktable_t, align 8
@.str.2 = private unnamed_addr constant [25 x i8] c"%s in current collection\00", align 1

; Function Attrs: mustprogress nofree norecurse nosync nounwind willreturn memory(none) uwtable
define noundef i32 @dt_module_dt_version() local_unnamed_addr #0 {
  ret i32 25
}

; Function Attrs: mustprogress nofree norecurse nosync nounwind willreturn memory(none) uwtable
define noundef i32 @dt_module_mod_version() local_unnamed_addr #0 {
  ret i32 1
}

; Function Attrs: nounwind uwtable
define ptr @name(ptr nocapture noundef readnone %0) local_unnamed_addr #1 {
  %2 = tail call ptr @dcgettext(ptr noundef null, ptr noundef nonnull @.str, i32 noundef 5) #6
  ret ptr %2
}

; Function Attrs: nounwind
declare ptr @dcgettext(ptr noundef, ptr noundef, i32 noundef) local_unnamed_addr #2

; Function Attrs: mustprogress nofree norecurse nosync nounwind willreturn memory(none) uwtable
define noundef i32 @views(ptr nocapture noundef readnone %0) local_unnamed_addr #0 {
  ret i32 15
}

; Function Attrs: mustprogress nofree norecurse nosync nounwind willreturn memory(none) uwtable
define noundef i32 @container(ptr nocapture noundef readnone %0) local_unnamed_addr #0 {
  ret i32 7
}

; Function Attrs: mustprogress nofree norecurse nosync nounwind willreturn memory(none) uwtable
define noundef i32 @expandable(ptr nocapture noundef readnone %0) local_unnamed_addr #0 {
  ret i32 0
}

; Function Attrs: mustprogress nofree norecurse nosync nounwind willreturn memory(none) uwtable
define noundef i32 @position(ptr nocapture noundef readnone %0) local_unnamed_addr #0 {
  ret i32 1
}

; Function Attrs: nounwind uwtable
define void @gui_init(ptr noundef %0) local_unnamed_addr #1 {
  %2 = tail call noalias dereferenceable_or_null(8) ptr @g_malloc0(i64 noundef 8) #7
  %3 = getelementptr inbounds i8, ptr %0, i64 280
  store ptr %2, ptr %3, align 8, !tbaa !6
  %4 = tail call ptr @gtk_event_box_new() #6
  %5 = getelementptr inbounds i8, ptr %0, i64 416
  store ptr %4, ptr %5, align 8, !tbaa !13
  %6 = tail call ptr @gtk_label_new(ptr noundef nonnull @.str.1) #6
  store ptr %6, ptr %2, align 8, !tbaa !14
  %7 = tail call i64 @gtk_label_get_type() #8
  %8 = tail call ptr @g_type_check_instance_cast(ptr noundef %6, i64 noundef %7) #6
  tail call void @gtk_label_set_ellipsize(ptr noundef %8, i32 noundef 3) #6
  %9 = load ptr, ptr %5, align 8, !tbaa !13
  %10 = tail call i64 @gtk_container_get_type() #8
  %11 = tail call ptr @g_type_check_instance_cast(ptr noundef %9, i64 noundef %10) #6
  %12 = load ptr, ptr %2, align 8, !tbaa !14
  tail call void @gtk_container_add(ptr noundef %11, ptr noundef %12) #6
  %13 = load ptr, ptr getelementptr inbounds (%struct.darktable_t, ptr @darktable, i64 0, i32 12), align 8, !tbaa !16
  %14 = getelementptr inbounds i8, ptr %13, i64 14656
  store ptr %0, ptr %14, align 8, !tbaa !26
  %15 = getelementptr inbounds i8, ptr %13, i64 14664
  store ptr @_lib_hinter_set_message, ptr %15, align 8, !tbaa !32
  ret void
}

; Function Attrs: allocsize(0)
declare noalias ptr @g_malloc0(i64 noundef) local_unnamed_addr #3

declare ptr @gtk_event_box_new() local_unnamed_addr #4

declare ptr @gtk_label_new(ptr noundef) local_unnamed_addr #4

declare void @gtk_label_set_ellipsize(ptr noundef, i32 noundef) local_unnamed_addr #4

declare ptr @g_type_check_instance_cast(ptr noundef, i64 noundef) local_unnamed_addr #4

; Function Attrs: mustprogress nofree nosync nounwind willreturn memory(none)
declare i64 @gtk_label_get_type() local_unnamed_addr #5

declare void @gtk_container_add(ptr noundef, ptr noundef) local_unnamed_addr #4

; Function Attrs: mustprogress nofree nosync nounwind willreturn memory(none)
declare i64 @gtk_container_get_type() local_unnamed_addr #5

; Function Attrs: nounwind uwtable
define internal void @_lib_hinter_set_message(ptr nocapture noundef readonly %0, ptr noundef %1) #1 {
  %3 = getelementptr inbounds i8, ptr %0, i64 280
  %4 = load ptr, ptr %3, align 8, !tbaa !6
  %5 = icmp eq ptr %1, null
  br i1 %5, label %26, label %6

6:                                                ; preds = %2
  %7 = load i8, ptr %1, align 1, !tbaa !33
  %8 = icmp eq i8 %7, 0
  br i1 %8, label %9, label %26

9:                                                ; preds = %6
  %10 = load ptr, ptr getelementptr inbounds (%struct.darktable_t, ptr @darktable, i64 0, i32 14), align 8, !tbaa !34
  %11 = load ptr, ptr %10, align 8, !tbaa !35
  %12 = tail call i32 @dt_ui_panel_visible(ptr noundef %11, i32 noundef 1) #6
  %13 = icmp eq i32 %12, 0
  br i1 %13, label %14, label %26

14:                                               ; preds = %9
  %15 = load ptr, ptr getelementptr inbounds (%struct.darktable_t, ptr @darktable, i64 0, i32 11), align 8, !tbaa !39
  %16 = tail call ptr @dt_view_filter_get_count(ptr noundef %15) #6
  %17 = icmp eq ptr %16, null
  br i1 %17, label %30, label %18

18:                                               ; preds = %14
  %19 = tail call ptr @dcgettext(ptr noundef null, ptr noundef nonnull @.str.2, i32 noundef 5) #6
  %20 = tail call i64 @gtk_label_get_type() #8
  %21 = tail call ptr @g_type_check_instance_cast(ptr noundef nonnull %16, i64 noundef %20) #6
  %22 = tail call ptr @gtk_label_get_text(ptr noundef %21) #6
  %23 = tail call noalias ptr (ptr, ...) @g_strdup_printf(ptr noundef %19, ptr noundef %22) #6
  %24 = load ptr, ptr %4, align 8, !tbaa !14
  %25 = tail call ptr @g_type_check_instance_cast(ptr noundef %24, i64 noundef %20) #6
  tail call void @gtk_label_set_markup(ptr noundef %25, ptr noundef %23) #6
  tail call void @g_free(ptr noundef %23) #6
  br label %30

26:                                               ; preds = %9, %6, %2
  %27 = load ptr, ptr %4, align 8, !tbaa !14
  %28 = tail call i64 @gtk_label_get_type() #8
  %29 = tail call ptr @g_type_check_instance_cast(ptr noundef %27, i64 noundef %28) #6
  tail call void @gtk_label_set_markup(ptr noundef %29, ptr noundef %1) #6
  br label %30

30:                                               ; preds = %26, %18, %14
  ret void
}

; Function Attrs: nounwind uwtable
define void @gui_cleanup(ptr nocapture noundef %0) local_unnamed_addr #1 {
  %2 = load ptr, ptr getelementptr inbounds (%struct.darktable_t, ptr @darktable, i64 0, i32 12), align 8, !tbaa !16
  %3 = getelementptr inbounds i8, ptr %2, i64 14656
  store ptr null, ptr %3, align 8, !tbaa !26
  %4 = getelementptr inbounds i8, ptr %0, i64 280
  %5 = load ptr, ptr %4, align 8, !tbaa !6
  tail call void @g_free(ptr noundef %5) #6
  store ptr null, ptr %4, align 8, !tbaa !6
  ret void
}

declare void @g_free(ptr noundef) local_unnamed_addr #4

declare i32 @dt_ui_panel_visible(ptr noundef, i32 noundef) local_unnamed_addr #4

declare ptr @dt_view_filter_get_count(ptr noundef) local_unnamed_addr #4

declare noalias ptr @g_strdup_printf(ptr noundef, ...) local_unnamed_addr #4

declare ptr @gtk_label_get_text(ptr noundef) local_unnamed_addr #4

declare void @gtk_label_set_markup(ptr noundef, ptr noundef) local_unnamed_addr #4


!llvm.module.flags = !{!0, !1, !2, !3, !4, !5}

!0 = !{i32 7, !"Dwarf Version", i32 5}
!1 = !{i32 2, !"Debug Info Version", i32 3}
!2 = !{i32 1, !"wchar_size", i32 4}
!3 = !{i32 8, !"PIC Level", i32 2}
!4 = !{i32 7, !"uwtable", i32 2}
!5 = !{i32 7, !"debug-info-assignment-tracking", i1 true}
!6 = !{!7, !12, i64 280}
!7 = !{!"dt_lib_module_t", !8, i64 0, !12, i64 48, !12, i64 56, !12, i64 64, !12, i64 72, !12, i64 80, !12, i64 88, !12, i64 96, !12, i64 104, !12, i64 112, !12, i64 120, !12, i64 128, !12, i64 136, !12, i64 144, !12, i64 152, !12, i64 160, !12, i64 168, !12, i64 176, !12, i64 184, !12, i64 192, !12, i64 200, !12, i64 208, !12, i64 216, !12, i64 224, !12, i64 232, !12, i64 240, !12, i64 248, !12, i64 256, !12, i64 264, !12, i64 272, !12, i64 280, !10, i64 288, !12, i64 416, !12, i64 424, !9, i64 432, !12, i64 440, !12, i64 448, !12, i64 456, !12, i64 464, !9, i64 472, !9, i64 476}
!8 = !{!"dt_action_t", !9, i64 0, !12, i64 8, !12, i64 16, !12, i64 24, !12, i64 32, !12, i64 40}
!9 = !{!"int", !10, i64 0}
!10 = !{!"omnipotent char", !11, i64 0}
!11 = !{!"Simple C/C++ TBAA"}
!12 = !{!"any pointer", !10, i64 0}
!13 = !{!7, !12, i64 416}
!14 = !{!15, !12, i64 0}
!15 = !{!"dt_lib_hinter_t", !12, i64 0}
!16 = !{!17, !12, i64 88}
!17 = !{!"darktable_t", !18, i64 0, !9, i64 4, !9, i64 8, !12, i64 16, !12, i64 24, !12, i64 32, !12, i64 40, !12, i64 48, !12, i64 56, !12, i64 64, !12, i64 72, !12, i64 80, !12, i64 88, !12, i64 96, !12, i64 104, !12, i64 112, !12, i64 120, !12, i64 128, !12, i64 136, !12, i64 144, !12, i64 152, !12, i64 160, !12, i64 168, !12, i64 176, !12, i64 184, !12, i64 192, !12, i64 200, !12, i64 208, !12, i64 216, !12, i64 224, !10, i64 232, !19, i64 2792, !19, i64 2832, !19, i64 2872, !19, i64 2912, !19, i64 2952, !12, i64 2992, !12, i64 3000, !12, i64 3008, !12, i64 3016, !12, i64 3024, !12, i64 3032, !12, i64 3040, !12, i64 3048, !12, i64 3056, !12, i64 3064, !12, i64 3072, !12, i64 3080, !20, i64 3088, !12, i64 3096, !21, i64 3104, !12, i64 3112, !9, i64 3120, !10, i64 3124, !9, i64 3308, !12, i64 3312, !12, i64 3320, !22, i64 3328, !24, i64 3376, !25, i64 3408}
!18 = !{!"dt_codepath_t", !9, i64 0}
!19 = !{!"dt_pthread_mutex_t", !10, i64 0}
!20 = !{!"", !9, i64 0}
!21 = !{!"double", !10, i64 0}
!22 = !{!"dt_sys_resources_t", !23, i64 0, !23, i64 8, !12, i64 16, !12, i64 24, !9, i64 32, !9, i64 36, !9, i64 40}
!23 = !{!"long", !10, i64 0}
!24 = !{!"dt_backthumb_t", !21, i64 0, !21, i64 8, !9, i64 16, !9, i64 20, !9, i64 24, !9, i64 28}
!25 = !{!"dt_gimp_t", !9, i64 0, !12, i64 8, !12, i64 16, !9, i64 24, !9, i64 28}
!26 = !{!27, !12, i64 14656}
!27 = !{!"dt_control_t", !9, i64 0, !12, i64 8, !8, i64 16, !8, i64 64, !8, i64 112, !8, i64 160, !8, i64 208, !8, i64 256, !8, i64 304, !8, i64 352, !8, i64 400, !8, i64 448, !8, i64 496, !12, i64 544, !12, i64 552, !12, i64 560, !9, i64 568, !12, i64 576, !9, i64 584, !9, i64 588, !12, i64 592, !12, i64 600, !10, i64 608, !9, i64 864, !21, i64 872, !9, i64 880, !9, i64 884, !23, i64 888, !9, i64 896, !9, i64 900, !9, i64 904, !21, i64 912, !21, i64 920, !9, i64 928, !9, i64 932, !9, i64 936, !9, i64 940, !9, i64 944, !9, i64 948, !10, i64 952, !9, i64 10952, !9, i64 10956, !19, i64 10960, !9, i64 11000, !9, i64 11004, !10, i64 11008, !9, i64 14008, !9, i64 14012, !19, i64 14016, !19, i64 14056, !19, i64 14096, !21, i64 14136, !9, i64 14144, !9, i64 14148, !19, i64 14152, !19, i64 14192, !19, i64 14232, !10, i64 14272, !9, i64 14320, !12, i64 14328, !23, i64 14336, !23, i64 14344, !12, i64 14352, !10, i64 14360, !10, i64 14400, !19, i64 14440, !10, i64 14480, !10, i64 14504, !10, i64 14512, !28, i64 14536, !30, i64 14656}
!28 = !{!"", !12, i64 0, !23, i64 8, !23, i64 16, !21, i64 24, !19, i64 32, !29, i64 72}
!29 = !{!"", !12, i64 0, !12, i64 8, !12, i64 16, !12, i64 24, !12, i64 32, !12, i64 40}
!30 = !{!"", !31, i64 0}
!31 = !{!"", !12, i64 0, !12, i64 8}
!32 = !{!27, !12, i64 14664}
!33 = !{!10, !10, i64 0}
!34 = !{!17, !12, i64 104}
!35 = !{!36, !12, i64 0}
!36 = !{!"dt_gui_gtk_t", !12, i64 0, !37, i64 8, !38, i64 72, !12, i64 96, !12, i64 104, !12, i64 112, !9, i64 120, !10, i64 128, !9, i64 1376, !9, i64 1380, !9, i64 1384, !9, i64 1388, !9, i64 1392, !21, i64 1400, !21, i64 1408, !21, i64 1416, !21, i64 1424, !12, i64 1432, !21, i64 1440, !21, i64 1448, !21, i64 1456, !21, i64 1464, !9, i64 1472, !9, i64 1476, !10, i64 1480, !9, i64 5576, !9, i64 5580, !9, i64 5584, !19, i64 5592}
!37 = !{!"dt_gui_widgets_t", !12, i64 0, !12, i64 8, !12, i64 16, !12, i64 24, !12, i64 32, !12, i64 40, !9, i64 48, !9, i64 52, !9, i64 56}
!38 = !{!"dt_gui_scrollbars_t", !12, i64 0, !12, i64 8, !9, i64 16}
!39 = !{!17, !12, i64 80}
